target datalayout = "e-m:e-p270:32:32-p271:32:32-p272:64:64-i64:64-i128:128-f80:128-n8:16:32:64-S128"
target triple = "x86_64-pc-linux-gnu"

@.str.13 = private unnamed_addr constant [13 x i8] c", Status: %s\00", align 1
@ett_zbee_zdp_server = external global i32, align 4

; Function Attrs: nounwind uwtable
define hidden void @dissect_zbee_zdp_rsp_system_server_disc(ptr noundef %0, ptr noundef %1, ptr noundef %2) #0 {
  %4 = alloca ptr, align 8
  %5 = alloca ptr, align 8
  %6 = alloca ptr, align 8
  %7 = alloca i32, align 4
  %8 = alloca i8, align 1
  store ptr %0, ptr %4, align 8
  store ptr %1, ptr %5, align 8
  store ptr %2, ptr %6, align 8
  store i32 0, ptr %7, align 4
  %9 = load ptr, ptr %6, align 8
  %10 = load ptr, ptr %4, align 8
  %11 = call zeroext i8 @zdp_parse_status(ptr noundef %9, ptr noundef %10, ptr noundef %7)
  store i8 %11, ptr %8, align 1
  %12 = load i8, ptr %8, align 1
  %13 = zext i8 %12 to i32
  %14 = icmp eq i32 %13, 0
  br i1 %14, label %20, label %15

15:                                               ; preds = %3
  %16 = load ptr, ptr %4, align 8
  %17 = load i32, ptr %7, align 4
  %18 = call i32 @tvb_bytes_exist(ptr noundef %16, i32 noundef %17, i32 noundef 2)
  %19 = icmp ne i32 %18, 0
  br i1 %19, label %20, label %25

20:                                               ; preds = %15, %3
  %21 = load ptr, ptr %6, align 8
  %22 = load i32, ptr @ett_zbee_zdp_server, align 4
  %23 = load ptr, ptr %4, align 8
  %24 = call zeroext i16 @zdp_parse_server_flags(ptr noundef %21, i32 noundef %22, ptr noundef %23, ptr noundef %7)
  br label %25

25:                                               ; preds = %20, %15
  %26 = load ptr, ptr %6, align 8
  %27 = load ptr, ptr %5, align 8
  %28 = load i8, ptr %8, align 1
  %29 = call ptr @zdp_status_name(i8 noundef zeroext %28)
  call void (ptr, ptr, ptr, ...) @zbee_append_info(ptr noundef %26, ptr noundef %27, ptr noundef @.str.13, ptr noundef %29)
  %30 = load ptr, ptr %4, align 8
  %31 = load i32, ptr %7, align 4
  %32 = load ptr, ptr %5, align 8
  %33 = load ptr, ptr %6, align 8
  call void @zdp_dump_excess(ptr noundef %30, i32 noundef %31, ptr noundef %32, ptr noundef %33)
  ret void
}