; Function Attrs: nounwind uwtable
define hidden void @dissect_zbee_zdp_rsp_system_server_disc(ptr noundef %0, ptr noundef %1, ptr noundef %2) local_unnamed_addr #0 {
  %4 = alloca i32, align 4
  store i32 0, ptr %4, align 4
  %5 = call zeroext i8 @zdp_parse_status(ptr noundef %2, ptr noundef %0, ptr noundef nonnull %4) #2
  %6 = icmp eq i8 %5, 0
  br i1 %6, label %10, label %7

7:                                                ; preds = %3
  %8 = load i32, ptr %4, align 4
  %9 = call i32 @tvb_bytes_exist(ptr noundef %0, i32 noundef %8, i32 noundef 2) #2
  %.not = icmp eq i32 %9, 0
  br i1 %.not, label %13, label %10

10:                                               ; preds = %7, %3
  %11 = load i32, ptr @ett_zbee_zdp_server, align 4
  %12 = call zeroext i16 @zdp_parse_server_flags(ptr noundef %2, i32 noundef %11, ptr noundef %0, ptr noundef nonnull %4) #2
  br label %13

13:                                               ; preds = %10, %7
  %14 = call ptr @zdp_status_name(i8 noundef zeroext %5) #2
  call void (ptr, ptr, ptr, ...) @zbee_append_info(ptr noundef %2, ptr noundef %1, ptr noundef nonnull @.str.13, ptr noundef %14) #2
  %15 = load i32, ptr %4, align 4
  call void @zdp_dump_excess(ptr noundef %0, i32 noundef %15, ptr noundef %1, ptr noundef %2) #2
  ret void
}